target datalayout = "e-m:e-p270:32:32-p271:32:32-p272:64:64-i64:64-i128:128-f80:128-n8:16:32:64-S128"
target triple = "x86_64-unknown-linux-gnu"

%"struct.url::Component" = type { i32, i32 }
%"class.url::CanonOutputT" = type { ptr, ptr, i32, i32 }

; Function Attrs: mustprogress uwtable
define linkonce_odr dso_local noundef zeroext i1 @_ZN3url12CanonOutputTIcE4GrowEi(ptr noundef nonnull align 8 dereferenceable(24) %this, i32 noundef %min_additional) #0 comdat align 2 {
entry:
  %retval = alloca i1, align 1
  %this.addr = alloca ptr, align 8
  %min_additional.addr = alloca i32, align 4
  %new_len = alloca i32, align 4
  store ptr %this, ptr %this.addr, align 8
  store i32 %min_additional, ptr %min_additional.addr, align 4
  %this1 = load ptr, ptr %this.addr, align 8
  %buffer_len_ = getelementptr inbounds %"class.url::CanonOutputT", ptr %this1, i32 0, i32 2
  %0 = load i32, ptr %buffer_len_, align 8
  %cmp = icmp eq i32 %0, 0
  br i1 %cmp, label %cond.true, label %cond.false

cond.true:                                        ; preds = %entry
  br label %cond.end

cond.false:                                       ; preds = %entry
  %buffer_len_2 = getelementptr inbounds %"class.url::CanonOutputT", ptr %this1, i32 0, i32 2
  %1 = load i32, ptr %buffer_len_2, align 8
  br label %cond.end

cond.end:                                         ; preds = %cond.false, %cond.true
  %cond = phi i32 [ 16, %cond.true ], [ %1, %cond.false ]
  store i32 %cond, ptr %new_len, align 4
  br label %do.body

do.body:                                          ; preds = %do.cond, %cond.end
  %2 = load i32, ptr %new_len, align 4
  %cmp3 = icmp sge i32 %2, 1073741824
  br i1 %cmp3, label %if.then, label %if.end

if.then:                                          ; preds = %do.body
  store i1 false, ptr %retval, align 1
  br label %return

if.end:                                           ; preds = %do.body
  %3 = load i32, ptr %new_len, align 4
  %mul = mul nsw i32 %3, 2
  store i32 %mul, ptr %new_len, align 4
  br label %do.cond

do.cond:                                          ; preds = %if.end
  %4 = load i32, ptr %new_len, align 4
  %buffer_len_4 = getelementptr inbounds %"class.url::CanonOutputT", ptr %this1, i32 0, i32 2
  %5 = load i32, ptr %buffer_len_4, align 8
  %6 = load i32, ptr %min_additional.addr, align 4
  %add = add nsw i32 %5, %6
  %cmp5 = icmp slt i32 %4, %add
  br i1 %cmp5, label %do.body, label %do.end, !llvm.loop !7

do.end:                                           ; preds = %do.cond
  %7 = load i32, ptr %new_len, align 4
  %vtable = load ptr, ptr %this1, align 8
  %vfn = getelementptr inbounds ptr, ptr %vtable, i64 2
  %8 = load ptr, ptr %vfn, align 8
  call void %8(ptr noundef nonnull align 8 dereferenceable(24) %this1, i32 noundef %7)
  store i1 true, ptr %retval, align 1
  br label %return

return:                                           ; preds = %do.end, %if.then
  %9 = load i1, ptr %retval, align 1
  ret i1 %9
}

; Function Attrs: mustprogress nounwind uwtable
define linkonce_odr dso_local void @_ZN3url9ComponentC2Eii(ptr noundef nonnull align 4 dereferenceable(8) %this, i32 noundef %b, i32 noundef %l) unnamed_addr #1 comdat align 2 {
entry:
  %this.addr = alloca ptr, align 8
  %b.addr = alloca i32, align 4
  %l.addr = alloca i32, align 4
  store ptr %this, ptr %this.addr, align 8
  store i32 %b, ptr %b.addr, align 4
  store i32 %l, ptr %l.addr, align 4
  %this1 = load ptr, ptr %this.addr, align 8
  %begin = getelementptr inbounds %"struct.url::Component", ptr %this1, i32 0, i32 0
  %0 = load i32, ptr %b.addr, align 4
  store i32 %0, ptr %begin, align 4
  %len = getelementptr inbounds %"struct.url::Component", ptr %this1, i32 0, i32 1
  %1 = load i32, ptr %l.addr, align 4
  store i32 %1, ptr %len, align 4
  ret void
}

; Function Attrs: mustprogress uwtable
define linkonce_odr dso_local void @_ZN3url12CanonOutputTIcE9push_backEc(ptr noundef nonnull align 8 dereferenceable(24) %this, i8 noundef signext %ch) #0 comdat align 2 {
entry:
  %this.addr = alloca ptr, align 8
  %ch.addr = alloca i8, align 1
  store ptr %this, ptr %this.addr, align 8
  store i8 %ch, ptr %ch.addr, align 1
  %this1 = load ptr, ptr %this.addr, align 8
  %cur_len_ = getelementptr inbounds %"class.url::CanonOutputT", ptr %this1, i32 0, i32 3
  %0 = load i32, ptr %cur_len_, align 4
  %buffer_len_ = getelementptr inbounds %"class.url::CanonOutputT", ptr %this1, i32 0, i32 2
  %1 = load i32, ptr %buffer_len_, align 8
  %cmp = icmp slt i32 %0, %1
  br i1 %cmp, label %if.then, label %if.end

if.then:                                          ; preds = %entry
  %2 = load i8, ptr %ch.addr, align 1
  %buffer_ = getelementptr inbounds %"class.url::CanonOutputT", ptr %this1, i32 0, i32 1
  %3 = load ptr, ptr %buffer_, align 8
  %cur_len_2 = getelementptr inbounds %"class.url::CanonOutputT", ptr %this1, i32 0, i32 3
  %4 = load i32, ptr %cur_len_2, align 4
  %idxprom = sext i32 %4 to i64
  %arrayidx = getelementptr inbounds i8, ptr %3, i64 %idxprom
  store i8 %2, ptr %arrayidx, align 1
  %cur_len_3 = getelementptr inbounds %"class.url::CanonOutputT", ptr %this1, i32 0, i32 3
  %5 = load i32, ptr %cur_len_3, align 4
  %inc = add nsw i32 %5, 1
  store i32 %inc, ptr %cur_len_3, align 4
  br label %return

if.end:                                           ; preds = %entry
  %call = call noundef zeroext i1 @_ZN3url12CanonOutputTIcE4GrowEi(ptr noundef nonnull align 8 dereferenceable(24) %this1, i32 noundef 1)
  br i1 %call, label %if.end5, label %if.then4

if.then4:                                         ; preds = %if.end
  br label %return

if.end5:                                          ; preds = %if.end
  %6 = load i8, ptr %ch.addr, align 1
  %buffer_6 = getelementptr inbounds %"class.url::CanonOutputT", ptr %this1, i32 0, i32 1
  %7 = load ptr, ptr %buffer_6, align 8
  %cur_len_7 = getelementptr inbounds %"class.url::CanonOutputT", ptr %this1, i32 0, i32 3
  %8 = load i32, ptr %cur_len_7, align 4
  %idxprom8 = sext i32 %8 to i64
  %arrayidx9 = getelementptr inbounds i8, ptr %7, i64 %idxprom8
  store i8 %6, ptr %arrayidx9, align 1
  %cur_len_10 = getelementptr inbounds %"class.url::CanonOutputT", ptr %this1, i32 0, i32 3
  %9 = load i32, ptr %cur_len_10, align 4
  %inc11 = add nsw i32 %9, 1
  store i32 %inc11, ptr %cur_len_10, align 4
  br label %return

return:                                           ; preds = %if.end5, %if.then4, %if.then
  ret void
}

; Function Attrs: mustprogress nounwind uwtable
define linkonce_odr dso_local void @_ZN3url9ComponentC2Ev(ptr noundef nonnull align 4 dereferenceable(8) %this) unnamed_addr #1 comdat align 2 {
entry:
  %this.addr = alloca ptr, align 8
  store ptr %this, ptr %this.addr, align 8
  %this1 = load ptr, ptr %this.addr, align 8
  %begin = getelementptr inbounds %"struct.url::Component", ptr %this1, i32 0, i32 0
  store i32 0, ptr %begin, align 4
  %len = getelementptr inbounds %"struct.url::Component", ptr %this1, i32 0, i32 1
  store i32 -1, ptr %len, align 4
  ret void
}

; Function Attrs: mustprogress uwtable
define linkonce_odr dso_local i64 @_ZN3url9MakeRangeEii(i32 noundef %begin, i32 noundef %end) #0 comdat {
entry:
  %retval = alloca %"struct.url::Component", align 4
  %begin.addr = alloca i32, align 4
  %end.addr = alloca i32, align 4
  store i32 %begin, ptr %begin.addr, align 4
  store i32 %end, ptr %end.addr, align 4
  %0 = load i32, ptr %begin.addr, align 4
  %1 = load i32, ptr %end.addr, align 4
  %2 = load i32, ptr %begin.addr, align 4
  %sub = sub nsw i32 %1, %2
  call void @_ZN3url9ComponentC2Eii(ptr noundef nonnull align 4 dereferenceable(8) %retval, i32 noundef %0, i32 noundef %sub)
  %3 = load i64, ptr %retval, align 4
  ret i64 %3
}

; Function Attrs: mustprogress nounwind uwtable
define linkonce_odr dso_local noundef i32 @_ZNK3url9Component3endEv(ptr noundef nonnull align 4 dereferenceable(8) %this) #1 comdat align 2 {
entry:
  %this.addr = alloca ptr, align 8
  store ptr %this, ptr %this.addr, align 8
  %this1 = load ptr, ptr %this.addr, align 8
  %begin = getelementptr inbounds %"struct.url::Component", ptr %this1, i32 0, i32 0
  %0 = load i32, ptr %begin, align 4
  %len = getelementptr inbounds %"struct.url::Component", ptr %this1, i32 0, i32 1
  %1 = load i32, ptr %len, align 4
  %add = add nsw i32 %0, %1
  ret i32 %add
}

; Function Attrs: mustprogress nounwind uwtable
define linkonce_odr dso_local noundef i32 @_ZNK3url12CanonOutputTIcE6lengthEv(ptr noundef nonnull align 8 dereferenceable(24) %this) #1 comdat align 2 {
entry:
  %this.addr = alloca ptr, align 8
  store ptr %this, ptr %this.addr, align 8
  %this1 = load ptr, ptr %this.addr, align 8
  %cur_len_ = getelementptr inbounds %"class.url::CanonOutputT", ptr %this1, i32 0, i32 3
  %0 = load i32, ptr %cur_len_, align 4
  ret i32 %0
}

; Function Attrs: mustprogress uwtable
define internal noundef zeroext i1 @_ZN3url12_GLOBAL__N_122DoFileCanonicalizePathIttEEbPKT_RKNS_9ComponentEPNS_12CanonOutputTIcEEPS5_(ptr noundef %spec, ptr noundef nonnull align 4 dereferenceable(8) %path, ptr noundef %output, ptr noundef %out_path) #0 {
entry:
  %spec.addr = alloca ptr, align 8
  %path.addr = alloca ptr, align 8
  %output.addr = alloca ptr, align 8
  %out_path.addr = alloca ptr, align 8
  %after_drive = alloca i32, align 4
  %success = alloca i8, align 1
  %sub_path = alloca %"struct.url::Component", align 4
  %fake_output_path = alloca %"struct.url::Component", align 4
  store ptr %spec, ptr %spec.addr, align 8
  store ptr %path, ptr %path.addr, align 8
  store ptr %output, ptr %output.addr, align 8
  store ptr %out_path, ptr %out_path.addr, align 8
  %0 = load ptr, ptr %output.addr, align 8
  %call = call noundef i32 @_ZNK3url12CanonOutputTIcE6lengthEv(ptr noundef nonnull align 8 dereferenceable(24) %0)
  %1 = load ptr, ptr %out_path.addr, align 8
  %begin = getelementptr inbounds %"struct.url::Component", ptr %1, i32 0, i32 0
  store i32 %call, ptr %begin, align 4
  %2 = load ptr, ptr %path.addr, align 8
  %begin1 = getelementptr inbounds %"struct.url::Component", ptr %2, i32 0, i32 0
  %3 = load i32, ptr %begin1, align 4
  store i32 %3, ptr %after_drive, align 4
  store i8 1, ptr %success, align 1
  %4 = load i32, ptr %after_drive, align 4
  %5 = load ptr, ptr %path.addr, align 8
  %call2 = call noundef i32 @_ZNK3url9Component3endEv(ptr noundef nonnull align 4 dereferenceable(8) %5)
  %cmp = icmp slt i32 %4, %call2
  br i1 %cmp, label %if.then, label %if.else

if.then:                                          ; preds = %entry
  %6 = load i32, ptr %after_drive, align 4
  %7 = load ptr, ptr %path.addr, align 8
  %call3 = call noundef i32 @_ZNK3url9Component3endEv(ptr noundef nonnull align 4 dereferenceable(8) %7)
  %call4 = call i64 @_ZN3url9MakeRangeEii(i32 noundef %6, i32 noundef %call3)
  store i64 %call4, ptr %sub_path, align 4
  call void @_ZN3url9ComponentC2Ev(ptr noundef nonnull align 4 dereferenceable(8) %fake_output_path)
  %8 = load ptr, ptr %spec.addr, align 8
  %9 = load ptr, ptr %output.addr, align 8
  %call5 = call noundef zeroext i1 @_ZN3url16CanonicalizePathEPKtRKNS_9ComponentEPNS_12CanonOutputTIcEEPS2_(ptr noundef %8, ptr noundef nonnull align 4 dereferenceable(8) %sub_path, ptr noundef %9, ptr noundef %fake_output_path)
  %frombool = zext i1 %call5 to i8
  store i8 %frombool, ptr %success, align 1
  br label %if.end

if.else:                                          ; preds = %entry
  %10 = load ptr, ptr %output.addr, align 8
  call void @_ZN3url12CanonOutputTIcE9push_backEc(ptr noundef nonnull align 8 dereferenceable(24) %10, i8 noundef signext 47)
  br label %if.end

if.end:                                           ; preds = %if.else, %if.then
  %11 = load ptr, ptr %output.addr, align 8
  %call6 = call noundef i32 @_ZNK3url12CanonOutputTIcE6lengthEv(ptr noundef nonnull align 8 dereferenceable(24) %11)
  %12 = load ptr, ptr %out_path.addr, align 8
  %begin7 = getelementptr inbounds %"struct.url::Component", ptr %12, i32 0, i32 0
  %13 = load i32, ptr %begin7, align 4
  %sub = sub nsw i32 %call6, %13
  %14 = load ptr, ptr %out_path.addr, align 8
  %len = getelementptr inbounds %"struct.url::Component", ptr %14, i32 0, i32 1
  store i32 %sub, ptr %len, align 4
  %15 = load i8, ptr %success, align 1
  %tobool = trunc i8 %15 to i1
  ret i1 %tobool
}

; Function Attrs: mustprogress uwtable
define dso_local noundef zeroext i1 @_ZN3url20FileCanonicalizePathEPKtRKNS_9ComponentEPNS_12CanonOutputTIcEEPS2_(ptr noundef %spec, ptr noundef nonnull align 4 dereferenceable(8) %path, ptr noundef %output, ptr noundef %out_path) #0 {
entry:
  %spec.addr = alloca ptr, align 8
  %path.addr = alloca ptr, align 8
  %output.addr = alloca ptr, align 8
  %out_path.addr = alloca ptr, align 8
  store ptr %spec, ptr %spec.addr, align 8
  store ptr %path, ptr %path.addr, align 8
  store ptr %output, ptr %output.addr, align 8
  store ptr %out_path, ptr %out_path.addr, align 8
  %0 = load ptr, ptr %spec.addr, align 8
  %1 = load ptr, ptr %path.addr, align 8
  %2 = load ptr, ptr %output.addr, align 8
  %3 = load ptr, ptr %out_path.addr, align 8
  %call = call noundef zeroext i1 @_ZN3url12_GLOBAL__N_122DoFileCanonicalizePathIttEEbPKT_RKNS_9ComponentEPNS_12CanonOutputTIcEEPS5_(ptr noundef %0, ptr noundef nonnull align 4 dereferenceable(8) %1, ptr noundef %2, ptr noundef %3)
  ret i1 %call
}