; Function Attrs: mustprogress uwtable
define dso_local noundef zeroext i1 @_ZN3url20FileCanonicalizePathEPKtRKNS_9ComponentEPNS_12CanonOutputTIcEEPS2_(ptr noundef %spec, ptr nocapture noundef nonnull readonly align 4 dereferenceable(8) %path, ptr noundef %output, ptr nocapture noundef %out_path) local_unnamed_addr #0 {
entry:
  %sub_path.i = alloca %"struct.url::Component", align 8
  %fake_output_path.i = alloca %"struct.url::Component", align 4
  call void @llvm.lifetime.start.p0(i64 8, ptr nonnull %sub_path.i)
  call void @llvm.lifetime.start.p0(i64 8, ptr nonnull %fake_output_path.i)
  %cur_len_.i.i = getelementptr inbounds i8, ptr %output, i64 20
  %0 = load i32, ptr %cur_len_.i.i, align 4
  store i32 %0, ptr %out_path, align 4
  %len.i.i = getelementptr inbounds i8, ptr %path, i64 4
  %1 = load i32, ptr %len.i.i, align 4
  %cmp.i = icmp sgt i32 %1, 0
  br i1 %cmp.i, label %if.then.i, label %if.else.i

if.then.i:                                        ; preds = %entry
  %2 = load i32, ptr %path, align 4
  %retval.sroa.2.0.insert.ext.i.i = zext nneg i32 %1 to i64
  %retval.sroa.2.0.insert.shift.i.i = shl nuw nsw i64 %retval.sroa.2.0.insert.ext.i.i, 32
  %retval.sroa.0.0.insert.ext.i.i = zext i32 %2 to i64
  %retval.sroa.0.0.insert.insert.i.i = or disjoint i64 %retval.sroa.2.0.insert.shift.i.i, %retval.sroa.0.0.insert.ext.i.i
  store i64 %retval.sroa.0.0.insert.insert.i.i, ptr %sub_path.i, align 8
  store i32 0, ptr %fake_output_path.i, align 4
  %len.i11.i = getelementptr inbounds i8, ptr %fake_output_path.i, i64 4
  store i32 -1, ptr %len.i11.i, align 4
  %call5.i = call noundef zeroext i1 @_ZN3url16CanonicalizePathEPKtRKNS_9ComponentEPNS_12CanonOutputTIcEEPS2_(ptr noundef %spec, ptr noundef nonnull align 4 dereferenceable(8) %sub_path.i, ptr noundef nonnull %output, ptr noundef nonnull %fake_output_path.i)
  %.pre.i = load i32, ptr %cur_len_.i.i, align 4
  br label %_ZN3url12_GLOBAL__N_122DoFileCanonicalizePathIttEEbPKT_RKNS_9ComponentEPNS_12CanonOutputTIcEEPS5_.exit

if.else.i:                                        ; preds = %entry
  %buffer_len_.i.i = getelementptr inbounds i8, ptr %output, i64 16
  %3 = load i32, ptr %buffer_len_.i.i, align 8
  %cmp.i.i = icmp slt i32 %0, %3
  br i1 %cmp.i.i, label %return.sink.split.i.i, label %if.end.i.i

if.end.i.i:                                       ; preds = %if.else.i
  %cmp.i.i.i = icmp eq i32 %3, 0
  %spec.select = select i1 %cmp.i.i.i, i32 16, i32 %3
  br label %do.body.i.i.i

do.body.i.i.i:                                    ; preds = %if.end.i.i, %if.end.i.i.i
  %new_len.0.i.i.i = phi i32 [ %mul.i.i.i, %if.end.i.i.i ], [ %spec.select, %if.end.i.i ]
  %cmp3.i.i.i = icmp slt i32 %new_len.0.i.i.i, 1073741824
  br i1 %cmp3.i.i.i, label %if.end.i.i.i, label %_ZN3url12_GLOBAL__N_122DoFileCanonicalizePathIttEEbPKT_RKNS_9ComponentEPNS_12CanonOutputTIcEEPS5_.exit

if.end.i.i.i:                                     ; preds = %do.body.i.i.i
  %mul.i.i.i = shl nsw i32 %new_len.0.i.i.i, 1
  %cmp5.i.not.i.i = icmp sgt i32 %mul.i.i.i, %3
  br i1 %cmp5.i.not.i.i, label %if.end5.i.i, label %do.body.i.i.i, !llvm.loop !5

if.end5.i.i:                                      ; preds = %if.end.i.i.i
  %vtable.i.i.i = load ptr, ptr %output, align 8
  %vfn.i.i.i = getelementptr inbounds i8, ptr %vtable.i.i.i, i64 16
  %4 = load ptr, ptr %vfn.i.i.i, align 8
  tail call void %4(ptr noundef nonnull align 8 dereferenceable(24) %output, i32 noundef %mul.i.i.i)
  %5 = load i32, ptr %cur_len_.i.i, align 4
  br label %return.sink.split.i.i

return.sink.split.i.i:                            ; preds = %if.end5.i.i, %if.else.i
  %.sink2.i.i = phi i32 [ %5, %if.end5.i.i ], [ %0, %if.else.i ]
  %.sink.in.i.i = getelementptr inbounds i8, ptr %output, i64 8
  %.sink.i.i = load ptr, ptr %.sink.in.i.i, align 8
  %idxprom8.i.i = sext i32 %.sink2.i.i to i64
  %arrayidx9.i.i = getelementptr inbounds i8, ptr %.sink.i.i, i64 %idxprom8.i.i
  store i8 47, ptr %arrayidx9.i.i, align 1
  %6 = load i32, ptr %cur_len_.i.i, align 4
  %inc11.i.i = add nsw i32 %6, 1
  store i32 %inc11.i.i, ptr %cur_len_.i.i, align 4
  br label %_ZN3url12_GLOBAL__N_122DoFileCanonicalizePathIttEEbPKT_RKNS_9ComponentEPNS_12CanonOutputTIcEEPS5_.exit

_ZN3url12_GLOBAL__N_122DoFileCanonicalizePathIttEEbPKT_RKNS_9ComponentEPNS_12CanonOutputTIcEEPS5_.exit: ; preds = %do.body.i.i.i, %if.then.i, %return.sink.split.i.i
  %7 = phi i32 [ %.pre.i, %if.then.i ], [ %inc11.i.i, %return.sink.split.i.i ], [ %0, %do.body.i.i.i ]
  %success.0.i = phi i1 [ %call5.i, %if.then.i ], [ true, %return.sink.split.i.i ], [ true, %do.body.i.i.i ]
  %8 = load i32, ptr %out_path, align 4
  %sub.i = sub nsw i32 %7, %8
  %len.i = getelementptr inbounds i8, ptr %out_path, i64 4
  store i32 %sub.i, ptr %len.i, align 4
  call void @llvm.lifetime.end.p0(i64 8, ptr nonnull %sub_path.i)
  call void @llvm.lifetime.end.p0(i64 8, ptr nonnull %fake_output_path.i)
  ret i1 %success.0.i
}